; Function Attrs: mustprogress uwtable
define noundef double @_ZNK8QuantLib26FuturesConvAdjustmentQuote5valueEv(ptr noundef nonnull align 8 dereferenceable(144) %this) unnamed_addr #1 align 2 personality ptr @__gxx_personality_v0 {
entry:
  %ref.tmp.i = alloca %"class.QuantLib::Date", align 8
  %settlementDate = alloca %"class.QuantLib::Date", align 8
  %ref.tmp = alloca %"class.QuantLib::Date", align 8
  %ref.tmp4 = alloca %"class.QuantLib::Date", align 8
  %ref.tmp7 = alloca %"class.QuantLib::Date", align 8
  %ref.tmp8 = alloca %"class.QuantLib::Date", align 8
  call void @llvm.lifetime.start.p0(i64 8, ptr nonnull %settlementDate) #25
  %0 = load atomic i8, ptr @_ZGVZN8QuantLib9SingletonINS_8SettingsESt17integral_constantIbLb0EEE8instanceEvE8instance acquire, align 8
  %guard.uninitialized.i = icmp eq i8 %0, 0
  br i1 %guard.uninitialized.i, label %init.check.i, label %_ZN8QuantLib9SingletonINS_8SettingsESt17integral_constantIbLb0EEE8instanceEv.exit, !prof !19

init.check.i:                                     ; preds = %entry
  %1 = tail call i32 @__cxa_guard_acquire(ptr nonnull @_ZGVZN8QuantLib9SingletonINS_8SettingsESt17integral_constantIbLb0EEE8instanceEvE8instance) #25
  %tobool.not.i = icmp eq i32 %1, 0
  br i1 %tobool.not.i, label %_ZN8QuantLib9SingletonINS_8SettingsESt17integral_constantIbLb0EEE8instanceEv.exit, label %init.i

init.i:                                           ; preds = %init.check.i
  invoke void @_ZN8QuantLib8SettingsC1Ev(ptr noundef nonnull align 8 dereferenceable(28) @_ZZN8QuantLib9SingletonINS_8SettingsESt17integral_constantIbLb0EEE8instanceEvE8instance)
          to label %invoke.cont.i unwind label %lpad.i

invoke.cont.i:                                    ; preds = %init.i
  %2 = tail call i32 @__cxa_atexit(ptr nonnull @_ZN8QuantLib8SettingsD2Ev, ptr nonnull @_ZZN8QuantLib9SingletonINS_8SettingsESt17integral_constantIbLb0EEE8instanceEvE8instance, ptr nonnull @__dso_handle) #25
  tail call void @__cxa_guard_release(ptr nonnull @_ZGVZN8QuantLib9SingletonINS_8SettingsESt17integral_constantIbLb0EEE8instanceEvE8instance) #25
  br label %_ZN8QuantLib9SingletonINS_8SettingsESt17integral_constantIbLb0EEE8instanceEv.exit

lpad.i:                                           ; preds = %init.i
  %3 = landingpad { ptr, i32 }
          cleanup
  tail call void @__cxa_guard_abort(ptr nonnull @_ZGVZN8QuantLib9SingletonINS_8SettingsESt17integral_constantIbLb0EEE8instanceEvE8instance) #25
  resume { ptr, i32 } %3

_ZN8QuantLib9SingletonINS_8SettingsESt17integral_constantIbLb0EEE8instanceEv.exit: ; preds = %entry, %init.check.i, %invoke.cont.i
  call void @llvm.lifetime.start.p0(i64 8, ptr nonnull %ref.tmp.i) #25
  call void @_ZN8QuantLib4DateC1Ev(ptr noundef nonnull align 8 dereferenceable(8) %ref.tmp.i)
  %4 = load i64, ptr @_ZZN8QuantLib9SingletonINS_8SettingsESt17integral_constantIbLb0EEE8instanceEvE8instance, align 8, !tbaa !8
  %5 = load i64, ptr %ref.tmp.i, align 8, !tbaa !88
  %cmp.i.i = icmp eq i64 %4, %5
  call void @llvm.lifetime.end.p0(i64 8, ptr nonnull %ref.tmp.i) #25
  br i1 %cmp.i.i, label %if.then.i, label %_ZNK8QuantLib8Settings9DateProxycvNS_4DateEEv.exit

if.then.i:                                        ; preds = %_ZN8QuantLib9SingletonINS_8SettingsESt17integral_constantIbLb0EEE8instanceEv.exit
  %call3.i = call i64 @_ZN8QuantLib4Date10todaysDateEv()
  br label %_ZNK8QuantLib8Settings9DateProxycvNS_4DateEEv.exit

_ZNK8QuantLib8Settings9DateProxycvNS_4DateEEv.exit: ; preds = %_ZN8QuantLib9SingletonINS_8SettingsESt17integral_constantIbLb0EEE8instanceEv.exit, %if.then.i
  %retval.sroa.0.0.i = phi i64 [ %call3.i, %if.then.i ], [ %4, %_ZN8QuantLib9SingletonINS_8SettingsESt17integral_constantIbLb0EEE8instanceEv.exit ]
  store i64 %retval.sroa.0.0.i, ptr %settlementDate, align 8
  %dc_ = getelementptr inbounds nuw i8, ptr %this, i64 64
  %futuresDate_ = getelementptr inbounds nuw i8, ptr %this, i64 80
  call void @llvm.lifetime.start.p0(i64 8, ptr nonnull %ref.tmp) #25
  call void @_ZN8QuantLib4DateC1Ev(ptr noundef nonnull align 8 dereferenceable(8) %ref.tmp)
  call void @llvm.lifetime.start.p0(i64 8, ptr nonnull %ref.tmp4) #25
  call void @_ZN8QuantLib4DateC1Ev(ptr noundef nonnull align 8 dereferenceable(8) %ref.tmp4)
  %call5 = call noundef double @_ZNK8QuantLib10DayCounter12yearFractionERKNS_4DateES3_S3_S3_(ptr noundef nonnull align 8 dereferenceable(16) %dc_, ptr noundef nonnull align 8 dereferenceable(8) %settlementDate, ptr noundef nonnull align 8 dereferenceable(8) %futuresDate_, ptr noundef nonnull align 8 dereferenceable(8) %ref.tmp, ptr noundef nonnull align 8 dereferenceable(8) %ref.tmp4)
  call void @llvm.lifetime.end.p0(i64 8, ptr nonnull %ref.tmp4) #25
  call void @llvm.lifetime.end.p0(i64 8, ptr nonnull %ref.tmp) #25
  %indexMaturityDate_ = getelementptr inbounds nuw i8, ptr %this, i64 88
  call void @llvm.lifetime.start.p0(i64 8, ptr nonnull %ref.tmp7) #25
  call void @_ZN8QuantLib4DateC1Ev(ptr noundef nonnull align 8 dereferenceable(8) %ref.tmp7)
  call void @llvm.lifetime.start.p0(i64 8, ptr nonnull %ref.tmp8) #25
  call void @_ZN8QuantLib4DateC1Ev(ptr noundef nonnull align 8 dereferenceable(8) %ref.tmp8)
  %call9 = call noundef double @_ZNK8QuantLib10DayCounter12yearFractionERKNS_4DateES3_S3_S3_(ptr noundef nonnull align 8 dereferenceable(16) %dc_, ptr noundef nonnull align 8 dereferenceable(8) %settlementDate, ptr noundef nonnull align 8 dereferenceable(8) %indexMaturityDate_, ptr noundef nonnull align 8 dereferenceable(8) %ref.tmp7, ptr noundef nonnull align 8 dereferenceable(8) %ref.tmp8)
  call void @llvm.lifetime.end.p0(i64 8, ptr nonnull %ref.tmp8) #25
  call void @llvm.lifetime.end.p0(i64 8, ptr nonnull %ref.tmp7) #25
  %futuresQuote_ = getelementptr inbounds nuw i8, ptr %this, i64 96
  %call10 = call noundef nonnull align 8 dereferenceable(16) ptr @_ZNK8QuantLib6HandleINS_5QuoteEEptEv(ptr noundef nonnull align 8 dereferenceable(16) %futuresQuote_)
  %6 = load ptr, ptr %call10, align 8, !tbaa !90
  %cmp.not.i = icmp eq ptr %6, null
  br i1 %cmp.not.i, label %cond.false.i, label %_ZNK5boost10shared_ptrIN8QuantLib5QuoteEEptEv.exit, !prof !41

cond.false.i:                                     ; preds = %_ZNK8QuantLib8Settings9DateProxycvNS_4DateEEv.exit
  call void @_ZN5boost16assertion_failedEPKcS1_S1_l(ptr noundef nonnull @.str.9, ptr noundef nonnull @__PRETTY_FUNCTION__._ZNK5boost10shared_ptrIN8QuantLib5QuoteEEptEv, ptr noundef nonnull @.str.10, i64 noundef 784)
  %.pre.i = load ptr, ptr %call10, align 8, !tbaa !90
  br label %_ZNK5boost10shared_ptrIN8QuantLib5QuoteEEptEv.exit

_ZNK5boost10shared_ptrIN8QuantLib5QuoteEEptEv.exit: ; preds = %_ZNK8QuantLib8Settings9DateProxycvNS_4DateEEv.exit, %cond.false.i
  %7 = phi ptr [ %6, %_ZNK8QuantLib8Settings9DateProxycvNS_4DateEEv.exit ], [ %.pre.i, %cond.false.i ]
  %vtable = load ptr, ptr %7, align 8, !tbaa !14
  %vfn = getelementptr inbounds i8, ptr %vtable, i64 16
  %8 = load ptr, ptr %vfn, align 8
  %call12 = call noundef double %8(ptr noundef nonnull align 8 dereferenceable(8) %7)
  %volatility_ = getelementptr inbounds nuw i8, ptr %this, i64 112
  %call13 = call noundef nonnull align 8 dereferenceable(16) ptr @_ZNK8QuantLib6HandleINS_5QuoteEEptEv(ptr noundef nonnull align 8 dereferenceable(16) %volatility_)
  %9 = load ptr, ptr %call13, align 8, !tbaa !90
  %cmp.not.i1 = icmp eq ptr %9, null
  br i1 %cmp.not.i1, label %cond.false.i2, label %_ZNK5boost10shared_ptrIN8QuantLib5QuoteEEptEv.exit4, !prof !41

cond.false.i2:                                    ; preds = %_ZNK5boost10shared_ptrIN8QuantLib5QuoteEEptEv.exit
  call void @_ZN5boost16assertion_failedEPKcS1_S1_l(ptr noundef nonnull @.str.9, ptr noundef nonnull @__PRETTY_FUNCTION__._ZNK5boost10shared_ptrIN8QuantLib5QuoteEEptEv, ptr noundef nonnull @.str.10, i64 noundef 784)
  %.pre.i3 = load ptr, ptr %call13, align 8, !tbaa !90
  br label %_ZNK5boost10shared_ptrIN8QuantLib5QuoteEEptEv.exit4

_ZNK5boost10shared_ptrIN8QuantLib5QuoteEEptEv.exit4: ; preds = %_ZNK5boost10shared_ptrIN8QuantLib5QuoteEEptEv.exit, %cond.false.i2
  %10 = phi ptr [ %9, %_ZNK5boost10shared_ptrIN8QuantLib5QuoteEEptEv.exit ], [ %.pre.i3, %cond.false.i2 ]
  %vtable15 = load ptr, ptr %10, align 8, !tbaa !14
  %vfn16 = getelementptr inbounds i8, ptr %vtable15, i64 16
  %11 = load ptr, ptr %vfn16, align 8
  %call17 = call noundef double %11(ptr noundef nonnull align 8 dereferenceable(8) %10)
  %meanReversion_ = getelementptr inbounds nuw i8, ptr %this, i64 128
  %call18 = call noundef nonnull align 8 dereferenceable(16) ptr @_ZNK8QuantLib6HandleINS_5QuoteEEptEv(ptr noundef nonnull align 8 dereferenceable(16) %meanReversion_)
  %12 = load ptr, ptr %call18, align 8, !tbaa !90
  %cmp.not.i5 = icmp eq ptr %12, null
  br i1 %cmp.not.i5, label %cond.false.i6, label %_ZNK5boost10shared_ptrIN8QuantLib5QuoteEEptEv.exit8, !prof !41

cond.false.i6:                                    ; preds = %_ZNK5boost10shared_ptrIN8QuantLib5QuoteEEptEv.exit4
  call void @_ZN5boost16assertion_failedEPKcS1_S1_l(ptr noundef nonnull @.str.9, ptr noundef nonnull @__PRETTY_FUNCTION__._ZNK5boost10shared_ptrIN8QuantLib5QuoteEEptEv, ptr noundef nonnull @.str.10, i64 noundef 784)
  %.pre.i7 = load ptr, ptr %call18, align 8, !tbaa !90
  br label %_ZNK5boost10shared_ptrIN8QuantLib5QuoteEEptEv.exit8

_ZNK5boost10shared_ptrIN8QuantLib5QuoteEEptEv.exit8: ; preds = %_ZNK5boost10shared_ptrIN8QuantLib5QuoteEEptEv.exit4, %cond.false.i6
  %13 = phi ptr [ %12, %_ZNK5boost10shared_ptrIN8QuantLib5QuoteEEptEv.exit4 ], [ %.pre.i7, %cond.false.i6 ]
  %vtable20 = load ptr, ptr %13, align 8, !tbaa !14
  %vfn21 = getelementptr inbounds i8, ptr %vtable20, i64 16
  %14 = load ptr, ptr %vfn21, align 8
  %call22 = call noundef double %14(ptr noundef nonnull align 8 dereferenceable(8) %13)
  %call23 = call noundef double @_ZN8QuantLib9HullWhite13convexityBiasEddddd(double noundef %call12, double noundef %call5, double noundef %call9, double noundef %call17, double noundef %call22)
  call void @llvm.lifetime.end.p0(i64 8, ptr nonnull %settlementDate) #25
  ret double %call23
}